; Function Attrs: mustprogress nofree norecurse nosync nounwind willreturn memory(argmem: write) uwtable
define internal noundef zeroext i1 @"_ZNSt17_Function_handlerIFPN7rocksdb6DBImpl24MultiGetColumnFamilyDataERNS0_10autovectorIS2_Lm32EE13iterator_implIS5_S2_EEEZNS1_14MultiGetCommonERKNS0_11ReadOptionsEmPPNS0_18ColumnFamilyHandleEPKNS0_5SliceEPNS0_13PinnableSliceEPNS0_19PinnableWideColumnsEPNSt7__cxx1112basic_stringIcSt11char_traitsIcESaIcEEEPNS0_6StatusEbE3$_0E10_M_managerERSt9_Any_dataRKSY_St18_Manager_operation"(ptr nocapture noundef nonnull writeonly align 8 dereferenceable(16) %__dest, ptr noundef nonnull align 8 dereferenceable(16) %__source, i32 noundef %__op) #26 align 2 personality ptr @__gxx_personality_v0 {
entry:
  switch i32 %__op, label %sw.epilog [
    i32 1, label %sw.epilog.sink.split
    i32 0, label %sw.bb.i
  ]

sw.bb.i:                                          ; preds = %entry
  br label %sw.epilog.sink.split

sw.epilog.sink.split:                             ; preds = %entry, %sw.bb.i
  %.sink = phi ptr [ null, %sw.bb.i ], [ %__source, %entry ]
  store ptr %.sink, ptr %__dest, align 8
  br label %sw.epilog

sw.epilog:                                        ; preds = %sw.epilog.sink.split, %entry
  ret i1 false
}